; Function Attrs: mustprogress uwtable
define hidden noundef i64 @_ZNK6google8protobuf8internal12ExtensionSet8ByteSizeEv(ptr noundef nonnull readonly align 8 captures(none) dereferenceable(24) %0) local_unnamed_addr #8 align 2 {
  %2 = alloca i64, align 8
  call void @llvm.lifetime.start.p0(i64 8, ptr nonnull %2) #30
  store i64 0, ptr %2, align 8, !tbaa !119
  %3 = getelementptr inbounds nuw i8, ptr %0, i64 10
  %.val = load i16, ptr %3, align 2, !tbaa !66
  %4 = getelementptr inbounds nuw i8, ptr %0, i64 16
  %.val2 = load ptr, ptr %4, align 8
  %5 = icmp slt i16 %.val, 0
  br i1 %5, label %6, label %11, !prof !50

6:                                                ; preds = %1
  %7 = getelementptr inbounds nuw i8, ptr %.val2, i64 24
  %8 = load ptr, ptr %7, align 8, !tbaa !67
  %9 = getelementptr inbounds nuw i8, ptr %.val2, i64 8
  %10 = call fastcc ptr @"_ZN6google8protobuf8internal12ExtensionSet7ForEachISt17_Rb_tree_iteratorISt4pairIKiNS2_9ExtensionEEEZNKS2_8ByteSizeEvE3$_0EET0_T_SC_SB_"(ptr %8, ptr nonnull %9, ptr nonnull %2)
  %.pre = load i64, ptr %2, align 8, !tbaa !119
  br label %"_ZNK6google8protobuf8internal12ExtensionSet7ForEachIZNKS2_8ByteSizeEvE3$_0EET_S5_.exit"

11:                                               ; preds = %1
  %12 = zext nneg i16 %.val to i64
  %13 = getelementptr inbounds nuw %"struct.google::protobuf::internal::ExtensionSet::KeyValue", ptr %.val2, i64 %12
  %.not6.i.i = icmp eq i16 %.val, 0
  br i1 %.not6.i.i, label %"_ZNK6google8protobuf8internal12ExtensionSet7ForEachIZNKS2_8ByteSizeEvE3$_0EET_S5_.exit", label %.lr.ph.i.i

.lr.ph.i.i:                                       ; preds = %11, %.lr.ph.i.i
  %14 = phi i64 [ %18, %.lr.ph.i.i ], [ 0, %11 ]
  %.07.i.i = phi ptr [ %19, %.lr.ph.i.i ], [ %.val2, %11 ]
  %15 = load i32, ptr %.07.i.i, align 8, !tbaa !74
  %16 = getelementptr inbounds nuw i8, ptr %.07.i.i, i64 8
  %17 = tail call noundef i64 @_ZNK6google8protobuf8internal12ExtensionSet9Extension8ByteSizeEi(ptr noundef nonnull align 8 dereferenceable(24) %16, i32 noundef %15)
  %18 = add i64 %14, %17
  %19 = getelementptr inbounds nuw i8, ptr %.07.i.i, i64 32
  %.not.i.i = icmp eq ptr %19, %13
  br i1 %.not.i.i, label %"_ZNK6google8protobuf8internal12ExtensionSet7ForEachIZNKS2_8ByteSizeEvE3$_0EET_S5_.exit", label %.lr.ph.i.i, !llvm.loop !275

"_ZNK6google8protobuf8internal12ExtensionSet7ForEachIZNKS2_8ByteSizeEvE3$_0EET_S5_.exit": ; preds = %.lr.ph.i.i, %6, %11
  %20 = phi i64 [ %.pre, %6 ], [ 0, %11 ], [ %18, %.lr.ph.i.i ]
  call void @llvm.lifetime.end.p0(i64 8, ptr nonnull %2) #30
  ret i64 %20
}